target datalayout = "e-m:e-p270:32:32-p271:32:32-p272:64:64-i64:64-i128:128-f80:128-n8:16:32:64-S128"
target triple = "x86_64-pc-linux-gnu"

%class.btVector3 = type { [4 x float] }
%class.btDeformableContactConstraint = type { ptr, i8, ptr, %class.btVector3 }
%class.btDeformableRigidContactConstraint = type { %class.btDeformableContactConstraint, %class.btVector3, %class.btVector3, float, float, i8, ptr }

; Function Attrs: inlinehint mustprogress nounwind uwtable
define linkonce_odr dso_local void @_ZN9btVector3C2ERKfS1_S1_(ptr noundef nonnull align 4 dereferenceable(16) %0, ptr noundef nonnull align 4 dereferenceable(4) %1, ptr noundef nonnull align 4 dereferenceable(4) %2, ptr noundef nonnull align 4 dereferenceable(4) %3) unnamed_addr #5 comdat align 2 {
  %5 = alloca ptr, align 8
  %6 = alloca ptr, align 8
  %7 = alloca ptr, align 8
  %8 = alloca ptr, align 8
  store ptr %0, ptr %5, align 8, !tbaa !27
  store ptr %1, ptr %6, align 8, !tbaa !56
  store ptr %2, ptr %7, align 8, !tbaa !56
  store ptr %3, ptr %8, align 8, !tbaa !56
  %9 = load ptr, ptr %5, align 8
  %10 = load ptr, ptr %6, align 8, !tbaa !56
  %11 = load float, ptr %10, align 4, !tbaa !36
  %12 = getelementptr inbounds nuw %class.btVector3, ptr %9, i32 0, i32 0
  %13 = getelementptr inbounds [4 x float], ptr %12, i64 0, i64 0
  store float %11, ptr %13, align 4, !tbaa !36
  %14 = load ptr, ptr %7, align 8, !tbaa !56
  %15 = load float, ptr %14, align 4, !tbaa !36
  %16 = getelementptr inbounds nuw %class.btVector3, ptr %9, i32 0, i32 0
  %17 = getelementptr inbounds [4 x float], ptr %16, i64 0, i64 1
  store float %15, ptr %17, align 4, !tbaa !36
  %18 = load ptr, ptr %8, align 8, !tbaa !56
  %19 = load float, ptr %18, align 4, !tbaa !36
  %20 = getelementptr inbounds nuw %class.btVector3, ptr %9, i32 0, i32 0
  %21 = getelementptr inbounds [4 x float], ptr %20, i64 0, i64 2
  store float %19, ptr %21, align 4, !tbaa !36
  %22 = getelementptr inbounds nuw %class.btVector3, ptr %9, i32 0, i32 0
  %23 = getelementptr inbounds [4 x float], ptr %22, i64 0, i64 3
  store float 0.000000e+00, ptr %23, align 4, !tbaa !36
  ret void
}

; Function Attrs: inlinehint mustprogress uwtable
define linkonce_odr dso_local { <2 x float>, <2 x float> } @_ZplRK9btVector3S1_(ptr noundef nonnull align 4 dereferenceable(16) %0, ptr noundef nonnull align 4 dereferenceable(16) %1) #8 comdat {
  %3 = alloca %class.btVector3, align 4
  %4 = alloca ptr, align 8
  %5 = alloca ptr, align 8
  %6 = alloca float, align 4
  %7 = alloca float, align 4
  %8 = alloca float, align 4
  store ptr %0, ptr %4, align 8, !tbaa !27
  store ptr %1, ptr %5, align 8, !tbaa !27
  call void @llvm.lifetime.start.p0(i64 4, ptr %6) #13
  %9 = load ptr, ptr %4, align 8, !tbaa !27
  %10 = getelementptr inbounds nuw %class.btVector3, ptr %9, i32 0, i32 0
  %11 = getelementptr inbounds [4 x float], ptr %10, i64 0, i64 0
  %12 = load float, ptr %11, align 4, !tbaa !36
  %13 = load ptr, ptr %5, align 8, !tbaa !27
  %14 = getelementptr inbounds nuw %class.btVector3, ptr %13, i32 0, i32 0
  %15 = getelementptr inbounds [4 x float], ptr %14, i64 0, i64 0
  %16 = load float, ptr %15, align 4, !tbaa !36
  %17 = fadd float %12, %16
  store float %17, ptr %6, align 4, !tbaa !36
  call void @llvm.lifetime.start.p0(i64 4, ptr %7) #13
  %18 = load ptr, ptr %4, align 8, !tbaa !27
  %19 = getelementptr inbounds nuw %class.btVector3, ptr %18, i32 0, i32 0
  %20 = getelementptr inbounds [4 x float], ptr %19, i64 0, i64 1
  %21 = load float, ptr %20, align 4, !tbaa !36
  %22 = load ptr, ptr %5, align 8, !tbaa !27
  %23 = getelementptr inbounds nuw %class.btVector3, ptr %22, i32 0, i32 0
  %24 = getelementptr inbounds [4 x float], ptr %23, i64 0, i64 1
  %25 = load float, ptr %24, align 4, !tbaa !36
  %26 = fadd float %21, %25
  store float %26, ptr %7, align 4, !tbaa !36
  call void @llvm.lifetime.start.p0(i64 4, ptr %8) #13
  %27 = load ptr, ptr %4, align 8, !tbaa !27
  %28 = getelementptr inbounds nuw %class.btVector3, ptr %27, i32 0, i32 0
  %29 = getelementptr inbounds [4 x float], ptr %28, i64 0, i64 2
  %30 = load float, ptr %29, align 4, !tbaa !36
  %31 = load ptr, ptr %5, align 8, !tbaa !27
  %32 = getelementptr inbounds nuw %class.btVector3, ptr %31, i32 0, i32 0
  %33 = getelementptr inbounds [4 x float], ptr %32, i64 0, i64 2
  %34 = load float, ptr %33, align 4, !tbaa !36
  %35 = fadd float %30, %34
  store float %35, ptr %8, align 4, !tbaa !36
  call void @_ZN9btVector3C2ERKfS1_S1_(ptr noundef nonnull align 4 dereferenceable(16) %3, ptr noundef nonnull align 4 dereferenceable(4) %6, ptr noundef nonnull align 4 dereferenceable(4) %7, ptr noundef nonnull align 4 dereferenceable(4) %8)
  call void @llvm.lifetime.end.p0(i64 4, ptr %8) #13
  call void @llvm.lifetime.end.p0(i64 4, ptr %7) #13
  call void @llvm.lifetime.end.p0(i64 4, ptr %6) #13
  %36 = getelementptr inbounds nuw %class.btVector3, ptr %3, i32 0, i32 0
  %37 = load { <2 x float>, <2 x float> }, ptr %36, align 4
  ret { <2 x float>, <2 x float> } %37
}

; Function Attrs: mustprogress uwtable
define dso_local { <2 x float>, <2 x float> } @_ZNK38btDeformableNodeRigidContactConstraint5getDvEPKN10btSoftBody4NodeE(ptr noundef nonnull align 8 dereferenceable(104) %0, ptr noundef %1) unnamed_addr #3 align 2 {
  %3 = alloca %class.btVector3, align 4
  %4 = alloca ptr, align 8
  %5 = alloca ptr, align 8
  store ptr %0, ptr %4, align 8, !tbaa !122
  store ptr %1, ptr %5, align 8, !tbaa !128
  %6 = load ptr, ptr %4, align 8
  %7 = getelementptr inbounds nuw %class.btDeformableRigidContactConstraint, ptr %6, i32 0, i32 1
  %8 = getelementptr inbounds nuw %class.btDeformableRigidContactConstraint, ptr %6, i32 0, i32 2
  %9 = call { <2 x float>, <2 x float> } @_ZplRK9btVector3S1_(ptr noundef nonnull align 4 dereferenceable(16) %7, ptr noundef nonnull align 4 dereferenceable(16) %8)
  %10 = getelementptr inbounds nuw %class.btVector3, ptr %3, i32 0, i32 0
  %11 = getelementptr inbounds nuw { <2 x float>, <2 x float> }, ptr %10, i32 0, i32 0
  %12 = extractvalue { <2 x float>, <2 x float> } %9, 0
  store <2 x float> %12, ptr %11, align 4
  %13 = getelementptr inbounds nuw { <2 x float>, <2 x float> }, ptr %10, i32 0, i32 1
  %14 = extractvalue { <2 x float>, <2 x float> } %9, 1
  store <2 x float> %14, ptr %13, align 4
  %15 = getelementptr inbounds nuw %class.btVector3, ptr %3, i32 0, i32 0
  %16 = load { <2 x float>, <2 x float> }, ptr %15, align 4
  ret { <2 x float>, <2 x float> } %16
}