; Function Attrs: mustprogress nofree norecurse nosync nounwind willreturn memory(argmem: read) uwtable
define dso_local { <2 x float>, <2 x float> } @_ZNK38btDeformableNodeRigidContactConstraint5getDvEPKN10btSoftBody4NodeE(ptr noundef nonnull readonly align 8 captures(none) dereferenceable(104) %0, ptr readnone captures(none) %1) unnamed_addr #8 align 2 {
  %3 = getelementptr inbounds nuw i8, ptr %0, i64 40
  %4 = getelementptr inbounds nuw i8, ptr %0, i64 56
  %5 = load float, ptr %3, align 8, !tbaa !37
  %6 = load float, ptr %4, align 8, !tbaa !37
  %7 = fadd float %5, %6
  %8 = getelementptr inbounds nuw i8, ptr %0, i64 44
  %9 = load float, ptr %8, align 4, !tbaa !37
  %10 = getelementptr inbounds nuw i8, ptr %0, i64 60
  %11 = load float, ptr %10, align 4, !tbaa !37
  %12 = fadd float %9, %11
  %13 = getelementptr inbounds nuw i8, ptr %0, i64 48
  %14 = load float, ptr %13, align 8, !tbaa !37
  %15 = getelementptr inbounds nuw i8, ptr %0, i64 64
  %16 = load float, ptr %15, align 8, !tbaa !37
  %17 = fadd float %14, %16
  %.sroa.0.0.vec.insert.i = insertelement <2 x float> poison, float %7, i64 0
  %.sroa.0.4.vec.insert.i = insertelement <2 x float> %.sroa.0.0.vec.insert.i, float %12, i64 1
  %.sroa.3.12.vec.insert.i = insertelement <2 x float> <float poison, float 0.000000e+00>, float %17, i64 0
  %.fca.0.insert.i = insertvalue { <2 x float>, <2 x float> } poison, <2 x float> %.sroa.0.4.vec.insert.i, 0
  %.fca.1.insert.i = insertvalue { <2 x float>, <2 x float> } %.fca.0.insert.i, <2 x float> %.sroa.3.12.vec.insert.i, 1
  ret { <2 x float>, <2 x float> } %.fca.1.insert.i
}